target datalayout = "e-m:e-p270:32:32-p271:32:32-p272:64:64-i64:64-i128:128-f80:128-n8:16:32:64-S128"
target triple = "x86_64-pc-linux-gnu"

%struct.ExprState = type { i32, i8, i8, i64, ptr, ptr, ptr, ptr, ptr, i32, i32, ptr, ptr, ptr, ptr, ptr, ptr, ptr }
%struct.ExprEvalStep = type { i64, ptr, ptr, %union.anon }
%union.anon = type { %struct.anon.23 }
%struct.anon.23 = type { ptr, ptr, i32, i32, ptr, ptr }
%struct.anon.0 = type { i32, i32, i32 }
%struct.ExprContext = type { i32, ptr, ptr, ptr, ptr, ptr, ptr, ptr, ptr, ptr, i64, i8, i64, i8, ptr, ptr, ptr, ptr }
%struct.TupleTableSlot = type { i32, i16, i16, ptr, ptr, ptr, ptr, ptr, %struct.ItemPointerData, i32 }
%struct.ItemPointerData = type { %struct.BlockIdData, i16 }
%struct.BlockIdData = type { i16, i16 }

; Function Attrs: alwaysinline nounwind uwtable
define internal i64 @ExecJustVarVirtImpl(ptr noundef %0, ptr noundef %1, ptr noundef %2) #9 {
  %4 = alloca ptr, align 8
  %5 = alloca ptr, align 8
  %6 = alloca ptr, align 8
  %7 = alloca ptr, align 8
  %8 = alloca i32, align 4
  store ptr %0, ptr %4, align 8
  store ptr %1, ptr %5, align 8
  store ptr %2, ptr %6, align 8
  call void @llvm.lifetime.start.p0(i64 8, ptr %7) #11
  %9 = load ptr, ptr %4, align 8
  %10 = getelementptr inbounds nuw %struct.ExprState, ptr %9, i32 0, i32 5
  %11 = load ptr, ptr %10, align 8
  %12 = getelementptr inbounds %struct.ExprEvalStep, ptr %11, i64 0
  store ptr %12, ptr %7, align 8
  call void @llvm.lifetime.start.p0(i64 4, ptr %8) #11
  %13 = load ptr, ptr %7, align 8
  %14 = getelementptr inbounds nuw %struct.ExprEvalStep, ptr %13, i32 0, i32 3
  %15 = getelementptr inbounds nuw %struct.anon.0, ptr %14, i32 0, i32 0
  %16 = load i32, ptr %15, align 8
  store i32 %16, ptr %8, align 4
  %17 = load ptr, ptr %5, align 8
  %18 = getelementptr inbounds nuw %struct.TupleTableSlot, ptr %17, i32 0, i32 6
  %19 = load ptr, ptr %18, align 8
  %20 = load i32, ptr %8, align 4
  %21 = sext i32 %20 to i64
  %22 = getelementptr inbounds i8, ptr %19, i64 %21
  %23 = load i8, ptr %22, align 1, !range !7, !noundef !8
  %24 = trunc i8 %23 to i1
  %25 = load ptr, ptr %6, align 8
  %26 = zext i1 %24 to i8
  store i8 %26, ptr %25, align 1
  %27 = load ptr, ptr %5, align 8
  %28 = getelementptr inbounds nuw %struct.TupleTableSlot, ptr %27, i32 0, i32 5
  %29 = load ptr, ptr %28, align 8
  %30 = load i32, ptr %8, align 4
  %31 = sext i32 %30 to i64
  %32 = getelementptr inbounds i64, ptr %29, i64 %31
  %33 = load i64, ptr %32, align 8
  call void @llvm.lifetime.end.p0(i64 4, ptr %8) #11
  call void @llvm.lifetime.end.p0(i64 8, ptr %7) #11
  ret i64 %33
}

; Function Attrs: nounwind uwtable
define internal i64 @ExecJustScanVarVirt(ptr noundef %0, ptr noundef %1, ptr noundef %2) #0 {
  %4 = alloca ptr, align 8
  %5 = alloca ptr, align 8
  %6 = alloca ptr, align 8
  store ptr %0, ptr %4, align 8
  store ptr %1, ptr %5, align 8
  store ptr %2, ptr %6, align 8
  %7 = load ptr, ptr %4, align 8
  %8 = load ptr, ptr %5, align 8
  %9 = getelementptr inbounds nuw %struct.ExprContext, ptr %8, i32 0, i32 1
  %10 = load ptr, ptr %9, align 8
  %11 = load ptr, ptr %6, align 8
  %12 = call i64 @ExecJustVarVirtImpl(ptr noundef %7, ptr noundef %10, ptr noundef %11)
  ret i64 %12
}